target datalayout = "e-m:e-p270:32:32-p271:32:32-p272:64:64-i64:64-i128:128-f80:128-n8:16:32:64-S128"
target triple = "x86_64-unknown-linux-gnu"

%struct.VirtIOGPUBase = type { %struct.VirtIODevice, ptr, %struct.virtio_gpu_base_conf, %struct.virtio_gpu_config, ptr, i32, i32, %struct.MemoryRegion, [16 x %struct.virtio_gpu_scanout], i32, [16 x %struct.virtio_gpu_requested_state] }
%struct.VirtIODevice = type { %struct.DeviceState, ptr, i8, i8, i16, i64, i64, i64, i64, ptr, i16, i32, i32, ptr, %struct.MemoryListener, i16, i8, i8, i8, i8, i8, i8, i8, i8, i8, ptr, ptr, i8, i8, ptr, ptr, %union.anon.1, %struct.EventNotifier, i8 }
%struct.DeviceState = type { %struct.Object, ptr, ptr, i8, i8, i64, ptr, i32, i8, ptr, %struct.NamedGPIOListHead, %struct.NamedClockListHead, %struct.BusStateHead, i32, i32, i32, %struct.ResettableState, ptr, %struct.MemReentrancyGuard }
%struct.Object = type { ptr, ptr, ptr, i32, ptr }
%struct.NamedGPIOListHead = type { ptr }
%struct.NamedClockListHead = type { ptr }
%struct.BusStateHead = type { ptr }
%struct.ResettableState = type { i32, i8, i8 }
%struct.MemReentrancyGuard = type { i8 }
%struct.MemoryListener = type { ptr, ptr, ptr, ptr, ptr, ptr, ptr, ptr, ptr, ptr, ptr, ptr, ptr, ptr, ptr, ptr, ptr, i32, ptr, ptr, %union.anon, %union.anon.0 }
%union.anon = type { %struct.QTailQLink }
%struct.QTailQLink = type { ptr, ptr }
%union.anon.0 = type { %struct.QTailQLink }
%union.anon.1 = type { %struct.QTailQLink }
%struct.EventNotifier = type { i32, i32, i8 }
%struct.virtio_gpu_base_conf = type { i32, i32, i32, i32, i64 }
%struct.virtio_gpu_config = type { i32, i32, i32, i32 }
%struct.MemoryRegion = type { %struct.Object, i8, i8, i8, i8, i8, i8, i8, i8, i8, i8, ptr, ptr, ptr, ptr, ptr, ptr, i32, i128, i64, ptr, i64, i8, i8, i8, i8, i8, ptr, i64, i32, %union.anon.2, %union.anon.3, %union.anon.4, ptr, i32, ptr, ptr, i8 }
%union.anon.2 = type { %struct.QTailQLink }
%union.anon.3 = type { %struct.QTailQLink }
%union.anon.4 = type { %struct.QTailQLink }
%struct.virtio_gpu_scanout = type { ptr, ptr, i32, i32, i32, i32, i32, i32, %struct.virtio_gpu_update_cursor, ptr }
%struct.virtio_gpu_update_cursor = type { %struct.virtio_gpu_ctrl_hdr, %struct.virtio_gpu_cursor_pos, i32, i32, i32, i32 }
%struct.virtio_gpu_ctrl_hdr = type { i32, i32, i64, i32, i8, [3 x i8] }
%struct.virtio_gpu_cursor_pos = type { i32, i32, i32, i32 }
%struct.virtio_gpu_requested_state = type { i16, i16, i32, i32, i32, i32, i32 }

; Function Attrs: nounwind sspstrong uwtable
define dso_local void @virtio_gpu_base_reset(ptr noundef %g) #0 {
entry:
  %g.addr = alloca ptr, align 8
  %i = alloca i32, align 4
  store ptr %g, ptr %g.addr, align 8
  %0 = load ptr, ptr %g.addr, align 8
  %enable = getelementptr inbounds %struct.VirtIOGPUBase, ptr %0, i32 0, i32 6
  store i32 0, ptr %enable, align 4
  store i32 0, ptr %i, align 4
  br label %for.cond

for.cond:                                         ; preds = %for.inc, %entry
  %1 = load i32, ptr %i, align 4
  %2 = load ptr, ptr %g.addr, align 8
  %conf = getelementptr inbounds %struct.VirtIOGPUBase, ptr %2, i32 0, i32 2
  %max_outputs = getelementptr inbounds %struct.virtio_gpu_base_conf, ptr %conf, i32 0, i32 0
  %3 = load i32, ptr %max_outputs, align 16
  %cmp = icmp ult i32 %1, %3
  br i1 %cmp, label %for.body, label %for.end

for.body:                                         ; preds = %for.cond
  %4 = load ptr, ptr %g.addr, align 8
  %scanout = getelementptr inbounds %struct.VirtIOGPUBase, ptr %4, i32 0, i32 8
  %5 = load i32, ptr %i, align 4
  %idxprom = sext i32 %5 to i64
  %arrayidx = getelementptr [16 x %struct.virtio_gpu_scanout], ptr %scanout, i64 0, i64 %idxprom
  %resource_id = getelementptr inbounds %struct.virtio_gpu_scanout, ptr %arrayidx, i32 0, i32 7
  store i32 0, ptr %resource_id, align 4
  %6 = load ptr, ptr %g.addr, align 8
  %scanout1 = getelementptr inbounds %struct.VirtIOGPUBase, ptr %6, i32 0, i32 8
  %7 = load i32, ptr %i, align 4
  %idxprom2 = sext i32 %7 to i64
  %arrayidx3 = getelementptr [16 x %struct.virtio_gpu_scanout], ptr %scanout1, i64 0, i64 %idxprom2
  %width = getelementptr inbounds %struct.virtio_gpu_scanout, ptr %arrayidx3, i32 0, i32 2
  store i32 0, ptr %width, align 8
  %8 = load ptr, ptr %g.addr, align 8
  %scanout4 = getelementptr inbounds %struct.VirtIOGPUBase, ptr %8, i32 0, i32 8
  %9 = load i32, ptr %i, align 4
  %idxprom5 = sext i32 %9 to i64
  %arrayidx6 = getelementptr [16 x %struct.virtio_gpu_scanout], ptr %scanout4, i64 0, i64 %idxprom5
  %height = getelementptr inbounds %struct.virtio_gpu_scanout, ptr %arrayidx6, i32 0, i32 3
  store i32 0, ptr %height, align 4
  %10 = load ptr, ptr %g.addr, align 8
  %scanout7 = getelementptr inbounds %struct.VirtIOGPUBase, ptr %10, i32 0, i32 8
  %11 = load i32, ptr %i, align 4
  %idxprom8 = sext i32 %11 to i64
  %arrayidx9 = getelementptr [16 x %struct.virtio_gpu_scanout], ptr %scanout7, i64 0, i64 %idxprom8
  %x = getelementptr inbounds %struct.virtio_gpu_scanout, ptr %arrayidx9, i32 0, i32 4
  store i32 0, ptr %x, align 8
  %12 = load ptr, ptr %g.addr, align 8
  %scanout10 = getelementptr inbounds %struct.VirtIOGPUBase, ptr %12, i32 0, i32 8
  %13 = load i32, ptr %i, align 4
  %idxprom11 = sext i32 %13 to i64
  %arrayidx12 = getelementptr [16 x %struct.virtio_gpu_scanout], ptr %scanout10, i64 0, i64 %idxprom11
  %y = getelementptr inbounds %struct.virtio_gpu_scanout, ptr %arrayidx12, i32 0, i32 5
  store i32 0, ptr %y, align 4
  %14 = load ptr, ptr %g.addr, align 8
  %scanout13 = getelementptr inbounds %struct.VirtIOGPUBase, ptr %14, i32 0, i32 8
  %15 = load i32, ptr %i, align 4
  %idxprom14 = sext i32 %15 to i64
  %arrayidx15 = getelementptr [16 x %struct.virtio_gpu_scanout], ptr %scanout13, i64 0, i64 %idxprom14
  %ds = getelementptr inbounds %struct.virtio_gpu_scanout, ptr %arrayidx15, i32 0, i32 1
  store ptr null, ptr %ds, align 8
  br label %for.inc

for.inc:                                          ; preds = %for.body
  %16 = load i32, ptr %i, align 4
  %inc = add i32 %16, 1
  store i32 %inc, ptr %i, align 4
  br label %for.cond, !llvm.loop !5

for.end:                                          ; preds = %for.cond
  ret void
}