; Function Attrs: nofree norecurse nosync nounwind sspstrong memory(argmem: readwrite) uwtable
define dso_local void @virtio_gpu_base_reset(ptr noundef captures(none) initializes((580, 584)) %g) local_unnamed_addr #0 {
entry:
  %enable = getelementptr inbounds nuw i8, ptr %g, i64 580
  store i32 0, ptr %enable, align 4
  %conf = getelementptr inbounds nuw i8, ptr %g, i64 528
  %0 = load i32, ptr %conf, align 16
  %cmp15.not = icmp eq i32 %0, 0
  br i1 %cmp15.not, label %for.end, label %for.body.lr.ph

for.body.lr.ph:                                   ; preds = %entry
  %scanout = getelementptr inbounds nuw i8, ptr %g, i64 864
  br label %for.body

for.body:                                         ; preds = %for.body.lr.ph, %for.body
  %i.016 = phi i32 [ 0, %for.body.lr.ph ], [ %inc, %for.body ]
  %idxprom = sext i32 %i.016 to i64
  %arrayidx = getelementptr [16 x %struct.virtio_gpu_scanout], ptr %scanout, i64 0, i64 %idxprom
  %resource_id = getelementptr inbounds nuw i8, ptr %arrayidx, i64 36
  store i32 0, ptr %resource_id, align 4
  %ds = getelementptr inbounds nuw i8, ptr %arrayidx, i64 8
  %inc = add nuw i32 %i.016, 1
  tail call void @llvm.memset.p0.i64(ptr noundef nonnull align 8 dereferenceable(24) %ds, i8 0, i64 24, i1 false)
  %1 = load i32, ptr %conf, align 16
  %cmp = icmp ult i32 %inc, %1
  br i1 %cmp, label %for.body, label %for.end, !llvm.loop !5

for.end:                                          ; preds = %for.body, %entry
  ret void
}